target datalayout = "e-m:e-p270:32:32-p271:32:32-p272:64:64-i64:64-i128:128-f80:128-n8:16:32:64-S128"
target triple = "x86_64-pc-linux-gnu"

@_ZNSt3__16__itoa16__digits_base_10E = linkonce_odr hidden constant [200 x i8] c"00010203040506070809101112131415161718192021222324252627282930313233343536373839404142434445464748495051525354555657585960616263646566676869707172737475767778798081828384858687888990919293949596979899", comdat, align 16

; Function Attrs: mustprogress nounwind uwtable
define hidden void @_ZNSt3__117__append_n_digitsB8ne210000EjjPc(i32 noundef %0, i32 noundef %1, ptr noundef %2) #0 {
  %4 = alloca i32, align 4
  %5 = alloca i32, align 4
  %6 = alloca ptr, align 8
  %7 = alloca i32, align 4
  %8 = alloca i32, align 4
  %9 = alloca i32, align 4
  %10 = alloca i32, align 4
  %11 = alloca i32, align 4
  %12 = alloca i32, align 4
  store i32 %0, ptr %4, align 4, !tbaa !4
  store i32 %1, ptr %5, align 4, !tbaa !4
  store ptr %2, ptr %6, align 8, !tbaa !8
  call void @llvm.lifetime.start.p0(i64 4, ptr %7) #7
  store i32 0, ptr %7, align 4, !tbaa !4
  br label %13

13:                                               ; preds = %16, %3
  %14 = load i32, ptr %5, align 4, !tbaa !4
  %15 = icmp uge i32 %14, 10000
  br i1 %15, label %16, label %56

16:                                               ; preds = %13
  call void @llvm.lifetime.start.p0(i64 4, ptr %8) #7
  %17 = load i32, ptr %5, align 4, !tbaa !4
  %18 = load i32, ptr %5, align 4, !tbaa !4
  %19 = udiv i32 %18, 10000
  %20 = mul i32 10000, %19
  %21 = sub i32 %17, %20
  store i32 %21, ptr %8, align 4, !tbaa !4
  %22 = load i32, ptr %5, align 4, !tbaa !4
  %23 = udiv i32 %22, 10000
  store i32 %23, ptr %5, align 4, !tbaa !4
  call void @llvm.lifetime.start.p0(i64 4, ptr %9) #7
  %24 = load i32, ptr %8, align 4, !tbaa !4
  %25 = urem i32 %24, 100
  %26 = shl i32 %25, 1
  store i32 %26, ptr %9, align 4, !tbaa !4
  call void @llvm.lifetime.start.p0(i64 4, ptr %10) #7
  %27 = load i32, ptr %8, align 4, !tbaa !4
  %28 = udiv i32 %27, 100
  %29 = shl i32 %28, 1
  store i32 %29, ptr %10, align 4, !tbaa !4
  %30 = load ptr, ptr %6, align 8, !tbaa !8
  %31 = load i32, ptr %4, align 4, !tbaa !4
  %32 = zext i32 %31 to i64
  %33 = getelementptr inbounds nuw i8, ptr %30, i64 %32
  %34 = load i32, ptr %7, align 4, !tbaa !4
  %35 = zext i32 %34 to i64
  %36 = sub i64 0, %35
  %37 = getelementptr inbounds i8, ptr %33, i64 %36
  %38 = getelementptr inbounds i8, ptr %37, i64 -2
  %39 = load i32, ptr %9, align 4, !tbaa !4
  %40 = zext i32 %39 to i64
  %41 = getelementptr inbounds nuw i8, ptr @_ZNSt3__16__itoa16__digits_base_10E, i64 %40
  call void @llvm.memcpy.p0.p0.i64(ptr align 1 %38, ptr align 1 %41, i64 2, i1 false)
  %42 = load ptr, ptr %6, align 8, !tbaa !8
  %43 = load i32, ptr %4, align 4, !tbaa !4
  %44 = zext i32 %43 to i64
  %45 = getelementptr inbounds nuw i8, ptr %42, i64 %44
  %46 = load i32, ptr %7, align 4, !tbaa !4
  %47 = zext i32 %46 to i64
  %48 = sub i64 0, %47
  %49 = getelementptr inbounds i8, ptr %45, i64 %48
  %50 = getelementptr inbounds i8, ptr %49, i64 -4
  %51 = load i32, ptr %10, align 4, !tbaa !4
  %52 = zext i32 %51 to i64
  %53 = getelementptr inbounds nuw i8, ptr @_ZNSt3__16__itoa16__digits_base_10E, i64 %52
  call void @llvm.memcpy.p0.p0.i64(ptr align 1 %50, ptr align 1 %53, i64 2, i1 false)
  %54 = load i32, ptr %7, align 4, !tbaa !4
  %55 = add i32 %54, 4
  store i32 %55, ptr %7, align 4, !tbaa !4
  call void @llvm.lifetime.end.p0(i64 4, ptr %10) #7
  call void @llvm.lifetime.end.p0(i64 4, ptr %9) #7
  call void @llvm.lifetime.end.p0(i64 4, ptr %8) #7
  br label %13, !llvm.loop !11

56:                                               ; preds = %13
  %57 = load i32, ptr %5, align 4, !tbaa !4
  %58 = icmp uge i32 %57, 100
  br i1 %58, label %59, label %79

59:                                               ; preds = %56
  call void @llvm.lifetime.start.p0(i64 4, ptr %11) #7
  %60 = load i32, ptr %5, align 4, !tbaa !4
  %61 = urem i32 %60, 100
  %62 = shl i32 %61, 1
  store i32 %62, ptr %11, align 4, !tbaa !4
  %63 = load i32, ptr %5, align 4, !tbaa !4
  %64 = udiv i32 %63, 100
  store i32 %64, ptr %5, align 4, !tbaa !4
  %65 = load ptr, ptr %6, align 8, !tbaa !8
  %66 = load i32, ptr %4, align 4, !tbaa !4
  %67 = zext i32 %66 to i64
  %68 = getelementptr inbounds nuw i8, ptr %65, i64 %67
  %69 = load i32, ptr %7, align 4, !tbaa !4
  %70 = zext i32 %69 to i64
  %71 = sub i64 0, %70
  %72 = getelementptr inbounds i8, ptr %68, i64 %71
  %73 = getelementptr inbounds i8, ptr %72, i64 -2
  %74 = load i32, ptr %11, align 4, !tbaa !4
  %75 = zext i32 %74 to i64
  %76 = getelementptr inbounds nuw i8, ptr @_ZNSt3__16__itoa16__digits_base_10E, i64 %75
  call void @llvm.memcpy.p0.p0.i64(ptr align 1 %73, ptr align 1 %76, i64 2, i1 false)
  %77 = load i32, ptr %7, align 4, !tbaa !4
  %78 = add i32 %77, 2
  store i32 %78, ptr %7, align 4, !tbaa !4
  call void @llvm.lifetime.end.p0(i64 4, ptr %11) #7
  br label %79

79:                                               ; preds = %59, %56
  %80 = load i32, ptr %5, align 4, !tbaa !4
  %81 = icmp uge i32 %80, 10
  br i1 %81, label %82, label %97

82:                                               ; preds = %79
  call void @llvm.lifetime.start.p0(i64 4, ptr %12) #7
  %83 = load i32, ptr %5, align 4, !tbaa !4
  %84 = shl i32 %83, 1
  store i32 %84, ptr %12, align 4, !tbaa !4
  %85 = load ptr, ptr %6, align 8, !tbaa !8
  %86 = load i32, ptr %4, align 4, !tbaa !4
  %87 = zext i32 %86 to i64
  %88 = getelementptr inbounds nuw i8, ptr %85, i64 %87
  %89 = load i32, ptr %7, align 4, !tbaa !4
  %90 = zext i32 %89 to i64
  %91 = sub i64 0, %90
  %92 = getelementptr inbounds i8, ptr %88, i64 %91
  %93 = getelementptr inbounds i8, ptr %92, i64 -2
  %94 = load i32, ptr %12, align 4, !tbaa !4
  %95 = zext i32 %94 to i64
  %96 = getelementptr inbounds nuw i8, ptr @_ZNSt3__16__itoa16__digits_base_10E, i64 %95
  call void @llvm.memcpy.p0.p0.i64(ptr align 1 %93, ptr align 1 %96, i64 2, i1 false)
  call void @llvm.lifetime.end.p0(i64 4, ptr %12) #7
  br label %103

97:                                               ; preds = %79
  %98 = load i32, ptr %5, align 4, !tbaa !4
  %99 = add i32 48, %98
  %100 = trunc i32 %99 to i8
  %101 = load ptr, ptr %6, align 8, !tbaa !8
  %102 = getelementptr inbounds i8, ptr %101, i64 0
  store i8 %100, ptr %102, align 1, !tbaa !13
  br label %103

103:                                              ; preds = %97, %82
  call void @llvm.lifetime.end.p0(i64 4, ptr %7) #7
  ret void
}