; Function Attrs: mustprogress nofree norecurse nosync nounwind memory(argmem: write) uwtable
define hidden void @_ZNSt3__117__append_n_digitsB8ne210000EjjPc(i32 noundef %0, i32 noundef %1, ptr noundef writeonly captures(none) %2) local_unnamed_addr #0 {
  %4 = icmp ugt i32 %1, 9999
  br i1 %4, label %.lr.ph, label %._crit_edge

.lr.ph:                                           ; preds = %3
  %5 = zext i32 %0 to i64
  %6 = getelementptr inbounds nuw i8, ptr %2, i64 %5
  br label %7

7:                                                ; preds = %.lr.ph, %7
  %.035 = phi i32 [ %1, %.lr.ph ], [ %8, %7 ]
  %.03034 = phi i32 [ 0, %.lr.ph ], [ %25, %7 ]
  %8 = udiv i32 %.035, 10000
  %.neg = mul i32 %8, -10000
  %9 = add i32 %.neg, %.035
  %10 = urem i32 %9, 100
  %11 = shl nuw nsw i32 %10, 1
  %12 = udiv i32 %9, 100
  %13 = shl nuw nsw i32 %12, 1
  %14 = zext i32 %.03034 to i64
  %15 = sub nsw i64 0, %14
  %16 = getelementptr inbounds i8, ptr %6, i64 %15
  %17 = getelementptr inbounds i8, ptr %16, i64 -2
  %18 = zext nneg i32 %11 to i64
  %19 = getelementptr inbounds nuw i8, ptr @_ZNSt3__16__itoa16__digits_base_10E, i64 %18
  %20 = load i16, ptr %19, align 2
  store i16 %20, ptr %17, align 1
  %21 = getelementptr inbounds i8, ptr %16, i64 -4
  %22 = zext nneg i32 %13 to i64
  %23 = getelementptr inbounds nuw i8, ptr @_ZNSt3__16__itoa16__digits_base_10E, i64 %22
  %24 = load i16, ptr %23, align 2
  store i16 %24, ptr %21, align 1
  %25 = add i32 %.03034, 4
  %26 = icmp ugt i32 %.035, 99999999
  br i1 %26, label %7, label %._crit_edge, !llvm.loop !4

._crit_edge:                                      ; preds = %7, %3
  %.030.lcssa = phi i32 [ 0, %3 ], [ %25, %7 ]
  %.0.lcssa = phi i32 [ %1, %3 ], [ %8, %7 ]
  %27 = icmp samesign ugt i32 %.0.lcssa, 99
  br i1 %27, label %28, label %42

28:                                               ; preds = %._crit_edge
  %.lhs.trunc = trunc nuw i32 %.0.lcssa to i16
  %29 = urem i16 %.lhs.trunc, 100
  %30 = shl nuw nsw i16 %29, 1
  %31 = udiv i16 %.lhs.trunc, 100
  %.zext33 = zext nneg i16 %31 to i32
  %32 = zext i32 %0 to i64
  %33 = getelementptr inbounds nuw i8, ptr %2, i64 %32
  %34 = zext i32 %.030.lcssa to i64
  %35 = sub nsw i64 0, %34
  %36 = getelementptr inbounds i8, ptr %33, i64 %35
  %37 = getelementptr inbounds i8, ptr %36, i64 -2
  %38 = zext nneg i16 %30 to i64
  %39 = getelementptr inbounds nuw i8, ptr @_ZNSt3__16__itoa16__digits_base_10E, i64 %38
  %40 = load i16, ptr %39, align 2
  store i16 %40, ptr %37, align 1
  %41 = or disjoint i32 %.030.lcssa, 2
  br label %42

42:                                               ; preds = %28, %._crit_edge
  %.131 = phi i32 [ %41, %28 ], [ %.030.lcssa, %._crit_edge ]
  %.1 = phi i32 [ %.zext33, %28 ], [ %.0.lcssa, %._crit_edge ]
  %43 = icmp samesign ugt i32 %.1, 9
  br i1 %43, label %44, label %55

44:                                               ; preds = %42
  %45 = shl nuw nsw i32 %.1, 1
  %46 = zext i32 %0 to i64
  %47 = getelementptr inbounds nuw i8, ptr %2, i64 %46
  %48 = zext i32 %.131 to i64
  %49 = sub nsw i64 0, %48
  %50 = getelementptr inbounds i8, ptr %47, i64 %49
  %51 = getelementptr inbounds i8, ptr %50, i64 -2
  %52 = zext nneg i32 %45 to i64
  %53 = getelementptr inbounds nuw i8, ptr @_ZNSt3__16__itoa16__digits_base_10E, i64 %52
  %54 = load i16, ptr %53, align 2
  store i16 %54, ptr %51, align 1
  br label %58

55:                                               ; preds = %42
  %56 = trunc nuw nsw i32 %.1 to i8
  %57 = or disjoint i8 %56, 48
  store i8 %57, ptr %2, align 1, !tbaa !6
  br label %58

58:                                               ; preds = %55, %44
  ret void
}